target datalayout = "e-m:e-p270:32:32-p271:32:32-p272:64:64-i64:64-i128:128-f80:128-n8:16:32:64-S128"
target triple = "x86_64-pc-linux-gnu"

%struct.timespec = type { i64, i64 }

; Function Attrs: nounwind uwtable
define internal i64 @Abc_Clock() #0 {
  %1 = alloca i64, align 8
  %2 = alloca %struct.timespec, align 8
  %3 = alloca i64, align 8
  %4 = call i32 @clock_gettime(i32 noundef 1, ptr noundef %2) #10
  %5 = icmp slt i32 %4, 0
  br i1 %5, label %6, label %7

6:                                                ; preds = %0
  store i64 -1, ptr %1, align 8
  br label %18

7:                                                ; preds = %0
  %8 = getelementptr inbounds %struct.timespec, ptr %2, i32 0, i32 0
  %9 = load i64, ptr %8, align 8
  %10 = mul nsw i64 %9, 1000000
  store i64 %10, ptr %3, align 8
  %11 = getelementptr inbounds %struct.timespec, ptr %2, i32 0, i32 1
  %12 = load i64, ptr %11, align 8
  %13 = mul nsw i64 %12, 1000000
  %14 = sdiv i64 %13, 1000000000
  %15 = load i64, ptr %3, align 8
  %16 = add nsw i64 %15, %14
  store i64 %16, ptr %3, align 8
  %17 = load i64, ptr %3, align 8
  store i64 %17, ptr %1, align 8
  br label %18

18:                                               ; preds = %7, %6
  %19 = load i64, ptr %1, align 8
  ret i64 %19
}

; Function Attrs: nounwind uwtable
define ptr @Abc_NtkDC2(ptr noundef %0, i32 noundef %1, i32 noundef %2, i32 noundef %3, i32 noundef %4, i32 noundef %5) #0 {
  %7 = alloca ptr, align 8
  %8 = alloca ptr, align 8
  %9 = alloca i32, align 4
  %10 = alloca i32, align 4
  %11 = alloca i32, align 4
  %12 = alloca i32, align 4
  %13 = alloca i32, align 4
  %14 = alloca ptr, align 8
  %15 = alloca ptr, align 8
  %16 = alloca ptr, align 8
  %17 = alloca i64, align 8
  store ptr %0, ptr %8, align 8
  store i32 %1, ptr %9, align 4
  store i32 %2, ptr %10, align 4
  store i32 %3, ptr %11, align 4
  store i32 %4, ptr %12, align 4
  store i32 %5, ptr %13, align 4
  %18 = load ptr, ptr %8, align 8
  %19 = call ptr @Abc_NtkToDar(ptr noundef %18, i32 noundef 0, i32 noundef 0)
  store ptr %19, ptr %14, align 8
  %20 = load ptr, ptr %14, align 8
  %21 = icmp eq ptr %20, null
  br i1 %21, label %22, label %23

22:                                               ; preds = %6
  store ptr null, ptr %7, align 8
  br label %38

23:                                               ; preds = %6
  %24 = call i64 @Abc_Clock()
  store i64 %24, ptr %17, align 8
  %25 = load ptr, ptr %14, align 8
  store ptr %25, ptr %15, align 8
  %26 = load i32, ptr %9, align 4
  %27 = load i32, ptr %10, align 4
  %28 = load i32, ptr %11, align 4
  %29 = load i32, ptr %12, align 4
  %30 = load i32, ptr %13, align 4
  %31 = call ptr @Dar_ManCompress2(ptr noundef %25, i32 noundef %26, i32 noundef %27, i32 noundef %28, i32 noundef %29, i32 noundef %30)
  store ptr %31, ptr %14, align 8
  %32 = load ptr, ptr %15, align 8
  call void @Aig_ManStop(ptr noundef %32)
  %33 = load ptr, ptr %8, align 8
  %34 = load ptr, ptr %14, align 8
  %35 = call ptr @Abc_NtkFromDar(ptr noundef %33, ptr noundef %34)
  store ptr %35, ptr %16, align 8
  %36 = load ptr, ptr %14, align 8
  call void @Aig_ManStop(ptr noundef %36)
  %37 = load ptr, ptr %16, align 8
  store ptr %37, ptr %7, align 8
  br label %38

38:                                               ; preds = %23, %22
  %39 = load ptr, ptr %7, align 8
  ret ptr %39
}