; Function Attrs: nounwind uwtable
define noundef ptr @Abc_NtkDC2(ptr noundef %0, i32 noundef %1, i32 noundef %2, i32 noundef %3, i32 noundef %4, i32 noundef %5) local_unnamed_addr #1 {
  %7 = alloca %struct.timespec, align 8
  %8 = tail call ptr @Abc_NtkToDar(ptr noundef %0, i32 noundef 0, i32 noundef 0)
  %9 = icmp eq ptr %8, null
  br i1 %9, label %13, label %Abc_Clock.exit

Abc_Clock.exit:                                   ; preds = %6
  call void @llvm.lifetime.start.p0(i64 16, ptr nonnull %7)
  %10 = call i32 @clock_gettime(i32 noundef 1, ptr noundef nonnull %7) #19
  call void @llvm.lifetime.end.p0(i64 16, ptr nonnull %7)
  %11 = call ptr @Dar_ManCompress2(ptr noundef nonnull %8, i32 noundef %1, i32 noundef %2, i32 noundef %3, i32 noundef %4, i32 noundef %5) #19
  call void @Aig_ManStop(ptr noundef nonnull %8) #19
  %12 = call ptr @Abc_NtkFromDar(ptr noundef %0, ptr noundef %11)
  call void @Aig_ManStop(ptr noundef %11) #19
  br label %13

13:                                               ; preds = %6, %Abc_Clock.exit
  %.0 = phi ptr [ %12, %Abc_Clock.exit ], [ null, %6 ]
  ret ptr %.0
}